target datalayout = "e-m:e-p270:32:32-p271:32:32-p272:64:64-i64:64-i128:128-f80:128-n8:16:32:64-S128"
target triple = "x86_64-pc-linux-gnu"

%struct.nameData = type { [64 x i8] }
%struct.FormData_pg_attribute = type { i32, %struct.nameData, i32, i16, i16, i32, i16, i8, i8, i8, i8, i8, i8, i8, i8, i8, i8, i8, i16, i32 }
%struct.RelationData = type { %struct.RelFileLocator, ptr, i32, i32, i8, i8, i8, i8, i8, i32, i32, i32, i32, ptr, ptr, i32, %struct.LockInfoData, ptr, ptr, ptr, ptr, ptr, i8, ptr, ptr, ptr, ptr, ptr, ptr, i32, ptr, i8, ptr, ptr, i32, i8, i32, ptr, i8, ptr, ptr, ptr, ptr, ptr, ptr, ptr, i32, ptr, ptr, ptr, ptr, ptr, ptr, ptr, ptr, ptr, ptr, ptr, ptr, ptr, ptr, ptr, ptr, ptr, ptr, ptr, i32, i8, ptr }
%struct.RelFileLocator = type { i32, i32, i32 }
%struct.LockInfoData = type { %struct.LockRelId }
%struct.LockRelId = type { i32, i32 }
%struct.FormData_pg_class = type { i32, %struct.nameData, i32, i32, i32, i32, i32, i32, i32, i32, float, i32, i32, i8, i8, i8, i8, i16, i16, i8, i8, i8, i8, i8, i8, i8, i8, i32, i32, i32 }
%struct.ItemPointerData = type { %struct.BlockIdData, i16 }
%struct.BlockIdData = type { i16, i16 }
%struct.HeapTupleData = type { i32, %struct.ItemPointerData, i32, ptr }
%struct.HeapTupleHeaderData = type { %union.anon.0, %struct.ItemPointerData, i16, i16, i8, [0 x i8] }
%union.anon.0 = type { %struct.HeapTupleFields }
%struct.HeapTupleFields = type { i32, i32, %union.anon.1 }
%union.anon.1 = type { i32 }

@.str.1 = private unnamed_addr constant [7 x i8] c"heap.c\00", align 1
@.str.22 = private unnamed_addr constant [52 x i8] c"cache lookup failed for attribute %d of relation %u\00", align 1
@__func__.RelationClearMissing = private unnamed_addr constant [21 x i8] c"RelationClearMissing\00", align 1

; Function Attrs: inlinehint nounwind uwtable
define internal ptr @GETSTRUCT(ptr noundef %0) #5 {
  %2 = alloca ptr, align 8
  store ptr %0, ptr %2, align 8
  %3 = load ptr, ptr %2, align 8
  %4 = getelementptr inbounds nuw %struct.HeapTupleData, ptr %3, i32 0, i32 3
  %5 = load ptr, ptr %4, align 8
  %6 = load ptr, ptr %2, align 8
  %7 = getelementptr inbounds nuw %struct.HeapTupleData, ptr %6, i32 0, i32 3
  %8 = load ptr, ptr %7, align 8
  %9 = getelementptr inbounds nuw %struct.HeapTupleHeaderData, ptr %8, i32 0, i32 4
  %10 = load i8, ptr %9, align 2
  %11 = zext i8 %10 to i32
  %12 = sext i32 %11 to i64
  %13 = getelementptr inbounds i8, ptr %5, i64 %12
  ret ptr %13
}

; Function Attrs: inlinehint nounwind uwtable
define internal i64 @Int16GetDatum(i16 noundef signext %0) #5 {
  %2 = alloca i16, align 2
  store i16 %0, ptr %2, align 2
  %3 = load i16, ptr %2, align 2
  %4 = sext i16 %3 to i64
  ret i64 %4
}

; Function Attrs: inlinehint nounwind uwtable
define internal i64 @ObjectIdGetDatum(i32 noundef %0) #5 {
  %2 = alloca i32, align 4
  store i32 %0, ptr %2, align 4
  %3 = load i32, ptr %2, align 4
  %4 = zext i32 %3 to i64
  ret i64 %4
}

; Function Attrs: inlinehint nounwind uwtable
define internal i64 @BoolGetDatum(i1 noundef zeroext %0) #5 {
  %2 = alloca i8, align 1
  %3 = zext i1 %0 to i8
  store i8 %3, ptr %2, align 1
  %4 = load i8, ptr %2, align 1, !range !6, !noundef !7
  %5 = trunc i8 %4 to i1
  %6 = select i1 %5, i32 1, i32 0
  %7 = sext i32 %6 to i64
  ret i64 %7
}

; Function Attrs: nounwind uwtable
define dso_local void @RelationClearMissing(ptr noundef %0) #0 {
  %2 = alloca ptr, align 8
  %3 = alloca ptr, align 8
  %4 = alloca i32, align 4
  %5 = alloca i32, align 4
  %6 = alloca i32, align 4
  %7 = alloca [25 x i64], align 16
  %8 = alloca [25 x i8], align 16
  %9 = alloca [25 x i8], align 16
  %10 = alloca ptr, align 8
  %11 = alloca ptr, align 8
  %12 = alloca ptr, align 8
  store ptr %0, ptr %2, align 8
  call void @llvm.lifetime.start.p0(i64 8, ptr %3) #10
  call void @llvm.lifetime.start.p0(i64 4, ptr %4) #10
  %13 = load ptr, ptr %2, align 8
  %14 = getelementptr inbounds nuw %struct.RelationData, ptr %13, i32 0, i32 15
  %15 = load i32, ptr %14, align 8
  store i32 %15, ptr %4, align 4
  call void @llvm.lifetime.start.p0(i64 4, ptr %5) #10
  %16 = load ptr, ptr %2, align 8
  %17 = getelementptr inbounds nuw %struct.RelationData, ptr %16, i32 0, i32 13
  %18 = load ptr, ptr %17, align 8
  %19 = getelementptr inbounds nuw %struct.FormData_pg_class, ptr %18, i32 0, i32 17
  %20 = load i16, ptr %19, align 4
  %21 = sext i16 %20 to i32
  store i32 %21, ptr %5, align 4
  call void @llvm.lifetime.start.p0(i64 4, ptr %6) #10
  call void @llvm.lifetime.start.p0(i64 200, ptr %7) #10
  call void @llvm.lifetime.start.p0(i64 25, ptr %8) #10
  call void @llvm.lifetime.start.p0(i64 25, ptr %9) #10
  call void @llvm.lifetime.start.p0(i64 8, ptr %10) #10
  call void @llvm.lifetime.start.p0(i64 8, ptr %11) #10
  call void @llvm.lifetime.start.p0(i64 8, ptr %12) #10
  %22 = getelementptr inbounds [25 x i64], ptr %7, i64 0, i64 0
  call void @llvm.memset.p0.i64(ptr align 16 %22, i8 0, i64 200, i1 false)
  %23 = getelementptr inbounds [25 x i8], ptr %8, i64 0, i64 0
  call void @llvm.memset.p0.i64(ptr align 16 %23, i8 0, i64 25, i1 false)
  %24 = getelementptr inbounds [25 x i8], ptr %9, i64 0, i64 0
  call void @llvm.memset.p0.i64(ptr align 16 %24, i8 0, i64 25, i1 false)
  %25 = call i64 @BoolGetDatum(i1 noundef zeroext false)
  %26 = getelementptr inbounds [25 x i64], ptr %7, i64 0, i64 13
  store i64 %25, ptr %26, align 8
  %27 = getelementptr inbounds [25 x i8], ptr %8, i64 0, i64 24
  store i8 1, ptr %27, align 8
  %28 = getelementptr inbounds [25 x i8], ptr %9, i64 0, i64 13
  store i8 1, ptr %28, align 1
  %29 = getelementptr inbounds [25 x i8], ptr %9, i64 0, i64 24
  store i8 1, ptr %29, align 8
  %30 = call ptr @table_open(i32 noundef 1249, i32 noundef 3)
  store ptr %30, ptr %3, align 8
  store i32 1, ptr %6, align 4
  br label %31

31:                                               ; preds = %80, %1
  %32 = load i32, ptr %6, align 4
  %33 = load i32, ptr %5, align 4
  %34 = icmp sle i32 %32, %33
  br i1 %34, label %35, label %83

35:                                               ; preds = %31
  %36 = load i32, ptr %4, align 4
  %37 = call i64 @ObjectIdGetDatum(i32 noundef %36)
  %38 = load i32, ptr %6, align 4
  %39 = trunc i32 %38 to i16
  %40 = call i64 @Int16GetDatum(i16 noundef signext %39)
  %41 = call ptr @SearchSysCache2(i32 noundef 7, i64 noundef %37, i64 noundef %40)
  store ptr %41, ptr %11, align 8
  %42 = load ptr, ptr %11, align 8
  %43 = icmp ne ptr %42, null
  br i1 %43, label %57, label %44

44:                                               ; preds = %35
  br label %45

45:                                               ; preds = %44
  br i1 true, label %46, label %48

46:                                               ; preds = %45
  %47 = call zeroext i1 @errstart_cold(i32 noundef 21, ptr noundef null) #9
  br i1 %47, label %50, label %54

48:                                               ; preds = %45
  %49 = call zeroext i1 @errstart(i32 noundef 21, ptr noundef null)
  br i1 %49, label %50, label %54

50:                                               ; preds = %48, %46
  %51 = load i32, ptr %6, align 4
  %52 = load i32, ptr %4, align 4
  %53 = call i32 (ptr, ...) @errmsg_internal(ptr noundef @.str.22, i32 noundef %51, i32 noundef %52)
  call void @errfinish(ptr noundef @.str.1, i32 noundef 1986, ptr noundef @__func__.RelationClearMissing)
  br label %54

54:                                               ; preds = %50, %48, %46
  unreachable

55:                                               ; No predecessors!
  br label %56

56:                                               ; preds = %55
  br label %57

57:                                               ; preds = %56, %35
  %58 = load ptr, ptr %11, align 8
  %59 = call ptr @GETSTRUCT(ptr noundef %58)
  store ptr %59, ptr %10, align 8
  %60 = load ptr, ptr %10, align 8
  %61 = getelementptr inbounds nuw %struct.FormData_pg_attribute, ptr %60, i32 0, i32 13
  %62 = load i8, ptr %61, align 4, !range !6, !noundef !7
  %63 = trunc i8 %62 to i1
  br i1 %63, label %64, label %78

64:                                               ; preds = %57
  %65 = load ptr, ptr %11, align 8
  %66 = load ptr, ptr %3, align 8
  %67 = getelementptr inbounds nuw %struct.RelationData, ptr %66, i32 0, i32 14
  %68 = load ptr, ptr %67, align 8
  %69 = getelementptr inbounds [25 x i64], ptr %7, i64 0, i64 0
  %70 = getelementptr inbounds [25 x i8], ptr %8, i64 0, i64 0
  %71 = getelementptr inbounds [25 x i8], ptr %9, i64 0, i64 0
  %72 = call ptr @heap_modify_tuple(ptr noundef %65, ptr noundef %68, ptr noundef %69, ptr noundef %70, ptr noundef %71)
  store ptr %72, ptr %12, align 8
  %73 = load ptr, ptr %3, align 8
  %74 = load ptr, ptr %12, align 8
  %75 = getelementptr inbounds nuw %struct.HeapTupleData, ptr %74, i32 0, i32 1
  %76 = load ptr, ptr %12, align 8
  call void @CatalogTupleUpdate(ptr noundef %73, ptr noundef %75, ptr noundef %76)
  %77 = load ptr, ptr %12, align 8
  call void @heap_freetuple(ptr noundef %77)
  br label %78

78:                                               ; preds = %64, %57
  %79 = load ptr, ptr %11, align 8
  call void @ReleaseSysCache(ptr noundef %79)
  br label %80

80:                                               ; preds = %78
  %81 = load i32, ptr %6, align 4
  %82 = add i32 %81, 1
  store i32 %82, ptr %6, align 4
  br label %31, !llvm.loop !22

83:                                               ; preds = %31
  %84 = load ptr, ptr %3, align 8
  call void @table_close(ptr noundef %84, i32 noundef 3)
  call void @llvm.lifetime.end.p0(i64 8, ptr %12) #10
  call void @llvm.lifetime.end.p0(i64 8, ptr %11) #10
  call void @llvm.lifetime.end.p0(i64 8, ptr %10) #10
  call void @llvm.lifetime.end.p0(i64 25, ptr %9) #10
  call void @llvm.lifetime.end.p0(i64 25, ptr %8) #10
  call void @llvm.lifetime.end.p0(i64 200, ptr %7) #10
  call void @llvm.lifetime.end.p0(i64 4, ptr %6) #10
  call void @llvm.lifetime.end.p0(i64 4, ptr %5) #10
  call void @llvm.lifetime.end.p0(i64 4, ptr %4) #10
  call void @llvm.lifetime.end.p0(i64 8, ptr %3) #10
  ret void
}