; Function Attrs: nounwind uwtable
define dso_local void @RelationClearMissing(ptr noundef readonly captures(none) %0) local_unnamed_addr #0 {
  %2 = alloca [25 x i64], align 16
  %3 = alloca [25 x i8], align 16
  %4 = alloca [25 x i8], align 16
  %5 = getelementptr inbounds nuw i8, ptr %0, i64 72
  %6 = load i32, ptr %5, align 8
  %7 = getelementptr inbounds nuw i8, ptr %0, i64 56
  %8 = load ptr, ptr %7, align 8
  %9 = getelementptr inbounds nuw i8, ptr %8, i64 116
  %10 = load i16, ptr %9, align 4
  call void @llvm.lifetime.start.p0(i64 200, ptr nonnull %2) #11
  call void @llvm.lifetime.start.p0(i64 25, ptr nonnull %3) #11
  call void @llvm.lifetime.start.p0(i64 25, ptr nonnull %4) #11
  call void @llvm.memset.p0.i64(ptr noundef nonnull align 16 dereferenceable(200) %2, i8 0, i64 200, i1 false)
  call void @llvm.memset.p0.i64(ptr noundef nonnull align 16 dereferenceable(25) %3, i8 0, i64 25, i1 false)
  call void @llvm.memset.p0.i64(ptr noundef nonnull align 16 dereferenceable(25) %4, i8 0, i64 25, i1 false)
  %11 = getelementptr inbounds nuw i8, ptr %3, i64 24
  store i8 1, ptr %11, align 8
  %12 = getelementptr inbounds nuw i8, ptr %4, i64 13
  store i8 1, ptr %12, align 1
  %13 = getelementptr inbounds nuw i8, ptr %4, i64 24
  store i8 1, ptr %13, align 8
  %14 = tail call ptr @table_open(i32 noundef 1249, i32 noundef 3) #11
  %.not22 = icmp slt i16 %10, 1
  br i1 %.not22, label %._crit_edge, label %.lr.ph

.lr.ph:                                           ; preds = %1
  %15 = zext i32 %6 to i64
  %16 = getelementptr inbounds nuw i8, ptr %14, i64 64
  %narrow = add nuw i16 %10, 1
  %wide.trip.count = zext i16 %narrow to i64
  br label %17

17:                                               ; preds = %.lr.ph, %37
  %indvars.iv = phi i64 [ 1, %.lr.ph ], [ %indvars.iv.next, %37 ]
  %sext = shl i64 %indvars.iv, 48
  %18 = ashr exact i64 %sext, 48
  %19 = call ptr @SearchSysCache2(i32 noundef 7, i64 noundef %15, i64 noundef %18) #11
  %.not20 = icmp eq ptr %19, null
  br i1 %.not20, label %20, label %24

20:                                               ; preds = %17
  %21 = trunc nuw nsw i64 %indvars.iv to i32
  %22 = call zeroext i1 @errstart_cold(i32 noundef 21, ptr noundef null) #10
  call void @llvm.assume(i1 %22)
  %23 = call i32 (ptr, ...) @errmsg_internal(ptr noundef nonnull @.str.22, i32 noundef %21, i32 noundef %6) #11
  call void @errfinish(ptr noundef nonnull @.str.1, i32 noundef 1986, ptr noundef nonnull @__func__.RelationClearMissing) #11
  unreachable

24:                                               ; preds = %17
  %25 = getelementptr i8, ptr %19, i64 16
  %.val = load ptr, ptr %25, align 8
  %26 = getelementptr inbounds nuw i8, ptr %.val, i64 22
  %27 = load i8, ptr %26, align 2
  %28 = zext i8 %27 to i64
  %29 = getelementptr inbounds nuw i8, ptr %.val, i64 %28
  %30 = getelementptr inbounds nuw i8, ptr %29, i64 88
  %31 = load i8, ptr %30, align 4, !range !10, !noundef !11
  %32 = trunc nuw i8 %31 to i1
  br i1 %32, label %33, label %37

33:                                               ; preds = %24
  %34 = load ptr, ptr %16, align 8
  %35 = call ptr @heap_modify_tuple(ptr noundef nonnull %19, ptr noundef %34, ptr noundef nonnull %2, ptr noundef nonnull %3, ptr noundef nonnull %4) #11
  %36 = getelementptr inbounds nuw i8, ptr %35, i64 4
  call void @CatalogTupleUpdate(ptr noundef %14, ptr noundef nonnull %36, ptr noundef %35) #11
  call void @heap_freetuple(ptr noundef %35) #11
  br label %37

37:                                               ; preds = %33, %24
  call void @ReleaseSysCache(ptr noundef nonnull %19) #11
  %indvars.iv.next = add nuw nsw i64 %indvars.iv, 1
  %exitcond.not = icmp eq i64 %indvars.iv.next, %wide.trip.count
  br i1 %exitcond.not, label %._crit_edge, label %17, !llvm.loop !22

._crit_edge:                                      ; preds = %37, %1
  call void @table_close(ptr noundef %14, i32 noundef 3) #11
  call void @llvm.lifetime.end.p0(i64 25, ptr nonnull %4) #11
  call void @llvm.lifetime.end.p0(i64 25, ptr nonnull %3) #11
  call void @llvm.lifetime.end.p0(i64 200, ptr nonnull %2) #11
  ret void
}